target datalayout = "e-m:e-p270:32:32-p271:32:32-p272:64:64-i64:64-i128:128-f80:128-n8:16:32:64-S128"
target triple = "x86_64-unknown-linux-gnu"

%struct.QObject = type { %struct.QObjectBase_ }
%struct.QObjectBase_ = type { i32, i64 }
%struct.QDictRenames = type { ptr, ptr }

@.str.2 = private unnamed_addr constant [30 x i8] c"../qemu/qobject/block-qdict.c\00", align 1
@__func__.qdict_rename_keys = private unnamed_addr constant [18 x i8] c"qdict_rename_keys\00", align 1
@.str.11 = private unnamed_addr constant [55 x i8] c"'%s' and its alias '%s' can't be used at the same time\00", align 1

; Function Attrs: nounwind sspstrong uwtable
define internal void @qobject_ref_impl(ptr noundef %obj) #0 {
entry:
  %obj.addr = alloca ptr, align 8
  store ptr %obj, ptr %obj.addr, align 8
  %0 = load ptr, ptr %obj.addr, align 8
  %tobool = icmp ne ptr %0, null
  br i1 %tobool, label %if.then, label %if.end

if.then:                                          ; preds = %entry
  %1 = load ptr, ptr %obj.addr, align 8
  %base = getelementptr inbounds %struct.QObject, ptr %1, i32 0, i32 0
  %refcnt = getelementptr inbounds %struct.QObjectBase_, ptr %base, i32 0, i32 1
  %2 = load i64, ptr %refcnt, align 8
  %inc = add i64 %2, 1
  store i64 %inc, ptr %refcnt, align 8
  br label %if.end

if.end:                                           ; preds = %if.then, %entry
  ret void
}

; Function Attrs: nounwind sspstrong uwtable
define dso_local zeroext i1 @qdict_rename_keys(ptr noundef %qdict, ptr noundef %renames, ptr noundef %errp) #0 {
entry:
  %retval = alloca i1, align 1
  %qdict.addr = alloca ptr, align 8
  %renames.addr = alloca ptr, align 8
  %errp.addr = alloca ptr, align 8
  %qobj = alloca ptr, align 8
  %_o = alloca ptr, align 8
  %_obj20 = alloca ptr, align 8
  %tmp = alloca ptr, align 8
  %__mptr = alloca ptr, align 8
  %tmp12 = alloca ptr, align 8
  %tmp13 = alloca ptr, align 8
  store ptr %qdict, ptr %qdict.addr, align 8
  store ptr %renames, ptr %renames.addr, align 8
  store ptr %errp, ptr %errp.addr, align 8
  br label %while.cond

while.cond:                                       ; preds = %if.end15, %entry
  %0 = load ptr, ptr %renames.addr, align 8
  %from = getelementptr inbounds %struct.QDictRenames, ptr %0, i32 0, i32 0
  %1 = load ptr, ptr %from, align 8
  %tobool = icmp ne ptr %1, null
  br i1 %tobool, label %while.body, label %while.end

while.body:                                       ; preds = %while.cond
  %2 = load ptr, ptr %qdict.addr, align 8
  %3 = load ptr, ptr %renames.addr, align 8
  %from1 = getelementptr inbounds %struct.QDictRenames, ptr %3, i32 0, i32 0
  %4 = load ptr, ptr %from1, align 8
  %call = call i32 @qdict_haskey(ptr noundef %2, ptr noundef %4)
  %tobool2 = icmp ne i32 %call, 0
  br i1 %tobool2, label %if.then, label %if.end15

if.then:                                          ; preds = %while.body
  %5 = load ptr, ptr %qdict.addr, align 8
  %6 = load ptr, ptr %renames.addr, align 8
  %to = getelementptr inbounds %struct.QDictRenames, ptr %6, i32 0, i32 1
  %7 = load ptr, ptr %to, align 8
  %call3 = call i32 @qdict_haskey(ptr noundef %5, ptr noundef %7)
  %tobool4 = icmp ne i32 %call3, 0
  br i1 %tobool4, label %if.then5, label %if.end

if.then5:                                         ; preds = %if.then
  %8 = load ptr, ptr %errp.addr, align 8
  %9 = load ptr, ptr %renames.addr, align 8
  %to6 = getelementptr inbounds %struct.QDictRenames, ptr %9, i32 0, i32 1
  %10 = load ptr, ptr %to6, align 8
  %11 = load ptr, ptr %renames.addr, align 8
  %from7 = getelementptr inbounds %struct.QDictRenames, ptr %11, i32 0, i32 0
  %12 = load ptr, ptr %from7, align 8
  call void (ptr, ptr, i32, ptr, ptr, ...) @error_setg_internal(ptr noundef %8, ptr noundef @.str.2, i32 noundef 701, ptr noundef @__func__.qdict_rename_keys, ptr noundef @.str.11, ptr noundef %10, ptr noundef %12)
  store i1 false, ptr %retval, align 1
  br label %return

if.end:                                           ; preds = %if.then
  %13 = load ptr, ptr %qdict.addr, align 8
  %14 = load ptr, ptr %renames.addr, align 8
  %from8 = getelementptr inbounds %struct.QDictRenames, ptr %14, i32 0, i32 0
  %15 = load ptr, ptr %from8, align 8
  %call9 = call ptr @qdict_get(ptr noundef %13, ptr noundef %15)
  store ptr %call9, ptr %qobj, align 8
  %16 = load ptr, ptr %qdict.addr, align 8
  %17 = load ptr, ptr %renames.addr, align 8
  %to10 = getelementptr inbounds %struct.QDictRenames, ptr %17, i32 0, i32 1
  %18 = load ptr, ptr %to10, align 8
  %19 = load ptr, ptr %qobj, align 8
  store ptr %19, ptr %_o, align 8
  %20 = load ptr, ptr %_o, align 8
  store ptr %20, ptr %_obj20, align 8
  %21 = load ptr, ptr %_obj20, align 8
  %tobool11 = icmp ne ptr %21, null
  br i1 %tobool11, label %cond.true, label %cond.false

cond.true:                                        ; preds = %if.end
  %22 = load ptr, ptr %_obj20, align 8
  %base = getelementptr inbounds %struct.QObject, ptr %22, i32 0, i32 0
  store ptr %base, ptr %__mptr, align 8
  %23 = load ptr, ptr %__mptr, align 8
  %add.ptr = getelementptr i8, ptr %23, i64 0
  store ptr %add.ptr, ptr %tmp12, align 8
  %24 = load ptr, ptr %tmp12, align 8
  br label %cond.end

cond.false:                                       ; preds = %if.end
  br label %cond.end

cond.end:                                         ; preds = %cond.false, %cond.true
  %cond = phi ptr [ %24, %cond.true ], [ null, %cond.false ]
  store ptr %cond, ptr %tmp, align 8
  %25 = load ptr, ptr %tmp, align 8
  call void @qobject_ref_impl(ptr noundef %25)
  %26 = load ptr, ptr %_o, align 8
  store ptr %26, ptr %tmp13, align 8
  %27 = load ptr, ptr %tmp13, align 8
  call void @qdict_put_obj(ptr noundef %16, ptr noundef %18, ptr noundef %27)
  %28 = load ptr, ptr %qdict.addr, align 8
  %29 = load ptr, ptr %renames.addr, align 8
  %from14 = getelementptr inbounds %struct.QDictRenames, ptr %29, i32 0, i32 0
  %30 = load ptr, ptr %from14, align 8
  call void @qdict_del(ptr noundef %28, ptr noundef %30)
  br label %if.end15

if.end15:                                         ; preds = %cond.end, %while.body
  %31 = load ptr, ptr %renames.addr, align 8
  %incdec.ptr = getelementptr %struct.QDictRenames, ptr %31, i32 1
  store ptr %incdec.ptr, ptr %renames.addr, align 8
  br label %while.cond, !llvm.loop !19

while.end:                                        ; preds = %while.cond
  store i1 true, ptr %retval, align 1
  br label %return

return:                                           ; preds = %while.end, %if.then5
  %32 = load i1, ptr %retval, align 1
  ret i1 %32
}