; Function Attrs: nounwind sspstrong uwtable
define dso_local noundef zeroext i1 @qdict_rename_keys(ptr noundef %qdict, ptr noundef readonly captures(none) %renames, ptr noundef %errp) local_unnamed_addr #0 {
entry:
  %0 = load ptr, ptr %renames, align 8
  %tobool.not18 = icmp eq ptr %0, null
  br i1 %tobool.not18, label %return, label %while.body

while.body:                                       ; preds = %entry, %if.end15
  %1 = phi ptr [ %9, %if.end15 ], [ %0, %entry ]
  %renames.addr.019 = phi ptr [ %incdec.ptr, %if.end15 ], [ %renames, %entry ]
  %call = tail call i32 @qdict_haskey(ptr noundef %qdict, ptr noundef nonnull %1) #7
  %tobool2.not = icmp eq i32 %call, 0
  br i1 %tobool2.not, label %if.end15, label %if.then

if.then:                                          ; preds = %while.body
  %to = getelementptr inbounds nuw i8, ptr %renames.addr.019, i64 8
  %2 = load ptr, ptr %to, align 8
  %call3 = tail call i32 @qdict_haskey(ptr noundef %qdict, ptr noundef %2) #7
  %tobool4.not = icmp eq i32 %call3, 0
  br i1 %tobool4.not, label %if.end, label %if.then5

if.then5:                                         ; preds = %if.then
  %3 = load ptr, ptr %to, align 8
  %4 = load ptr, ptr %renames.addr.019, align 8
  tail call void (ptr, ptr, i32, ptr, ptr, ...) @error_setg_internal(ptr noundef %errp, ptr noundef nonnull @.str.2, i32 noundef 701, ptr noundef nonnull @__func__.qdict_rename_keys, ptr noundef nonnull @.str.11, ptr noundef %3, ptr noundef %4) #7
  br label %return

if.end:                                           ; preds = %if.then
  %5 = load ptr, ptr %renames.addr.019, align 8
  %call9 = tail call ptr @qdict_get(ptr noundef %qdict, ptr noundef %5) #7
  %6 = load ptr, ptr %to, align 8
  %tobool11.not = icmp eq ptr %call9, null
  br i1 %tobool11.not, label %qobject_ref_impl.exit, label %if.then.i

if.then.i:                                        ; preds = %if.end
  %refcnt.i = getelementptr inbounds nuw i8, ptr %call9, i64 8
  %7 = load i64, ptr %refcnt.i, align 8
  %inc.i = add i64 %7, 1
  store i64 %inc.i, ptr %refcnt.i, align 8
  br label %qobject_ref_impl.exit

qobject_ref_impl.exit:                            ; preds = %if.end, %if.then.i
  tail call void @qdict_put_obj(ptr noundef %qdict, ptr noundef %6, ptr noundef %call9) #7
  %8 = load ptr, ptr %renames.addr.019, align 8
  tail call void @qdict_del(ptr noundef %qdict, ptr noundef %8) #7
  br label %if.end15

if.end15:                                         ; preds = %qobject_ref_impl.exit, %while.body
  %incdec.ptr = getelementptr i8, ptr %renames.addr.019, i64 16
  %9 = load ptr, ptr %incdec.ptr, align 8
  %tobool.not = icmp eq ptr %9, null
  br i1 %tobool.not, label %return, label %while.body, !llvm.loop !19

return:                                           ; preds = %if.end15, %entry, %if.then5
  %tobool.not16 = phi i1 [ false, %if.then5 ], [ true, %entry ], [ true, %if.end15 ]
  ret i1 %tobool.not16
}